target datalayout = "e-m:e-p270:32:32-p271:32:32-p272:64:64-i64:64-i128:128-f80:128-n8:16:32:64-S128"
target triple = "x86_64-unknown-linux-gnu"

%"struct.node::AssertionInfo" = type { ptr, ptr, ptr }
%"class.v8::LocalBase" = type { %"class.v8::IndirectHandleBase" }
%"class.v8::IndirectHandleBase" = type { ptr }
%"class.v8::Local" = type { %"class.v8::LocalBase" }
%"class.node::MemoryRetainer" = type { ptr }
%"class.node::ListNode" = type { ptr, ptr }
%"class.node::LibuvStreamWrap" = type { %"class.node::HandleWrap", %"class.node::StreamBase", ptr }
%"class.node::HandleWrap" = type { %"class.node::AsyncWrap", i32, %"class.node::ListNode", ptr }
%"class.node::AsyncWrap" = type { %"class.node::BaseObject", i32, i8, double, double }
%"class.node::BaseObject" = type { %"class.node::MemoryRetainer", %"class.v8::Global.278", ptr, ptr }
%"class.v8::Global.278" = type { %"class.v8::PersistentBase.279" }
%"class.v8::PersistentBase.279" = type { %"class.v8::IndirectHandleBase" }
%"class.node::StreamBase" = type { %"class.node::StreamResource", ptr, %"class.node::EmitToJSStreamListener" }
%"class.node::StreamResource" = type { ptr, ptr, i64, i64 }
%"class.node::EmitToJSStreamListener" = type { %"class.node::ReportWritesToJSStreamListener" }
%"class.node::ReportWritesToJSStreamListener" = type { %"class.node::StreamListener" }
%"class.node::StreamListener" = type { ptr, ptr, ptr }

@_ZTVN4node10StreamBaseE = external unnamed_addr constant { [20 x ptr] }, align 8
@_ZTVN4node14StreamResourceE = external unnamed_addr constant { [12 x ptr] }, align 8
@_ZTVN4node22EmitToJSStreamListenerE = external unnamed_addr constant { [10 x ptr] }, align 8
@_ZTVN4node30ReportWritesToJSStreamListenerE = external unnamed_addr constant { [10 x ptr] }, align 8
@_ZTVN4node14StreamListenerE = external unnamed_addr constant { [10 x ptr] }, align 8
@_ZZN4node14StreamResource18PushStreamListenerEPNS_14StreamListenerEE4args = linkonce_odr dso_local constant %"struct.node::AssertionInfo" { ptr @.str.31, ptr @.str.32, ptr @.str.33 }, comdat, align 8
@_ZZN4node14StreamResource18PushStreamListenerEPNS_14StreamListenerEE4args_0 = linkonce_odr dso_local constant %"struct.node::AssertionInfo" { ptr @.str.34, ptr @.str.35, ptr @.str.33 }, comdat, align 8

; Function Attrs: mustprogress nounwind uwtable
define linkonce_odr dso_local void @_ZN4node14StreamListenerC2Ev(ptr noundef nonnull align 8 dereferenceable(24) %this) unnamed_addr #4 comdat align 2 {
entry:
  %this.addr = alloca ptr, align 8
  store ptr %this, ptr %this.addr, align 8
  %this1 = load ptr, ptr %this.addr, align 8
  store ptr getelementptr inbounds ({ [10 x ptr] }, ptr @_ZTVN4node14StreamListenerE, i32 0, i32 0, i32 2), ptr %this1, align 8
  %stream_ = getelementptr inbounds %"class.node::StreamListener", ptr %this1, i32 0, i32 1
  store ptr null, ptr %stream_, align 8
  %previous_listener_ = getelementptr inbounds %"class.node::StreamListener", ptr %this1, i32 0, i32 2
  store ptr null, ptr %previous_listener_, align 8
  ret void
}

; Function Attrs: mustprogress nounwind uwtable
define linkonce_odr dso_local void @_ZN4node30ReportWritesToJSStreamListenerC2Ev(ptr noundef nonnull align 8 dereferenceable(24) %this) unnamed_addr #4 comdat align 2 {
entry:
  %this.addr = alloca ptr, align 8
  store ptr %this, ptr %this.addr, align 8
  %this1 = load ptr, ptr %this.addr, align 8
  call void @_ZN4node14StreamListenerC2Ev(ptr noundef nonnull align 8 dereferenceable(24) %this1) #3
  store ptr getelementptr inbounds ({ [10 x ptr] }, ptr @_ZTVN4node30ReportWritesToJSStreamListenerE, i32 0, i32 0, i32 2), ptr %this1, align 8
  ret void
}

; Function Attrs: mustprogress nounwind uwtable
define linkonce_odr dso_local void @_ZN4node14StreamResource18PushStreamListenerEPNS_14StreamListenerE(ptr noundef nonnull align 8 dereferenceable(32) %this, ptr noundef %listener) #4 comdat align 2 {
entry:
  %this.addr = alloca ptr, align 8
  %listener.addr = alloca ptr, align 8
  store ptr %this, ptr %this.addr, align 8
  store ptr %listener, ptr %listener.addr, align 8
  %this1 = load ptr, ptr %this.addr, align 8
  br label %do.body

do.body:                                          ; preds = %entry
  %0 = load ptr, ptr %listener.addr, align 8
  %cmp = icmp ne ptr %0, null
  %lnot = xor i1 %cmp, true
  %lnot2 = xor i1 %lnot, true
  %lnot3 = xor i1 %lnot2, true
  br i1 %lnot3, label %if.then, label %if.end

if.then:                                          ; preds = %do.body
  br label %do.body4

do.body4:                                         ; preds = %if.then
  call void @_ZN4node6AssertERKNS_13AssertionInfoE(ptr noundef nonnull align 8 dereferenceable(24) @_ZZN4node14StreamResource18PushStreamListenerEPNS_14StreamListenerEE4args)
  call void @abort() #12
  unreachable

do.end:                                           ; No predecessors!
  br label %if.end

if.end:                                           ; preds = %do.end, %do.body
  br label %do.end5

do.end5:                                          ; preds = %if.end
  br label %do.body6

do.body6:                                         ; preds = %do.end5
  %1 = load ptr, ptr %listener.addr, align 8
  %stream_ = getelementptr inbounds %"class.node::StreamListener", ptr %1, i32 0, i32 1
  %2 = load ptr, ptr %stream_, align 8
  %cmp7 = icmp eq ptr %2, null
  %lnot8 = xor i1 %cmp7, true
  %lnot9 = xor i1 %lnot8, true
  %lnot10 = xor i1 %lnot9, true
  br i1 %lnot10, label %if.then11, label %if.end14

if.then11:                                        ; preds = %do.body6
  br label %do.body12

do.body12:                                        ; preds = %if.then11
  call void @_ZN4node6AssertERKNS_13AssertionInfoE(ptr noundef nonnull align 8 dereferenceable(24) @_ZZN4node14StreamResource18PushStreamListenerEPNS_14StreamListenerEE4args_0)
  call void @abort() #12
  unreachable

do.end13:                                         ; No predecessors!
  br label %if.end14

if.end14:                                         ; preds = %do.end13, %do.body6
  br label %do.end15

do.end15:                                         ; preds = %if.end14
  %listener_ = getelementptr inbounds %"class.node::StreamResource", ptr %this1, i32 0, i32 1
  %3 = load ptr, ptr %listener_, align 8
  %4 = load ptr, ptr %listener.addr, align 8
  %previous_listener_ = getelementptr inbounds %"class.node::StreamListener", ptr %4, i32 0, i32 2
  store ptr %3, ptr %previous_listener_, align 8
  %5 = load ptr, ptr %listener.addr, align 8
  %stream_16 = getelementptr inbounds %"class.node::StreamListener", ptr %5, i32 0, i32 1
  store ptr %this1, ptr %stream_16, align 8
  %6 = load ptr, ptr %listener.addr, align 8
  %listener_17 = getelementptr inbounds %"class.node::StreamResource", ptr %this1, i32 0, i32 1
  store ptr %6, ptr %listener_17, align 8
  ret void
}

; Function Attrs: mustprogress nounwind uwtable
define linkonce_odr dso_local void @_ZN4node22EmitToJSStreamListenerC2Ev(ptr noundef nonnull align 8 dereferenceable(24) %this) unnamed_addr #4 comdat align 2 {
entry:
  %this.addr = alloca ptr, align 8
  store ptr %this, ptr %this.addr, align 8
  %this1 = load ptr, ptr %this.addr, align 8
  call void @_ZN4node30ReportWritesToJSStreamListenerC2Ev(ptr noundef nonnull align 8 dereferenceable(24) %this1) #3
  store ptr getelementptr inbounds ({ [10 x ptr] }, ptr @_ZTVN4node22EmitToJSStreamListenerE, i32 0, i32 0, i32 2), ptr %this1, align 8
  ret void
}

; Function Attrs: mustprogress nounwind uwtable
define linkonce_odr dso_local void @_ZN4node14StreamResourceC2Ev(ptr noundef nonnull align 8 dereferenceable(32) %this) unnamed_addr #4 comdat align 2 {
entry:
  %this.addr = alloca ptr, align 8
  store ptr %this, ptr %this.addr, align 8
  %this1 = load ptr, ptr %this.addr, align 8
  store ptr getelementptr inbounds ({ [12 x ptr] }, ptr @_ZTVN4node14StreamResourceE, i32 0, i32 0, i32 2), ptr %this1, align 8
  %listener_ = getelementptr inbounds %"class.node::StreamResource", ptr %this1, i32 0, i32 1
  store ptr null, ptr %listener_, align 8
  %bytes_read_ = getelementptr inbounds %"class.node::StreamResource", ptr %this1, i32 0, i32 2
  store i64 0, ptr %bytes_read_, align 8
  %bytes_written_ = getelementptr inbounds %"class.node::StreamResource", ptr %this1, i32 0, i32 3
  store i64 0, ptr %bytes_written_, align 8
  ret void
}

; Function Attrs: mustprogress nounwind uwtable
define linkonce_odr dso_local void @_ZN4node10StreamBase14AttachToObjectEN2v85LocalINS1_6ObjectEEE(ptr noundef nonnull align 8 dereferenceable(64) %this, ptr %obj.coerce) #4 comdat align 2 {
entry:
  %slot.addr.i = alloca ptr, align 8
  %this.addr.i.i = alloca ptr, align 8
  %this.addr.i4 = alloca ptr, align 8
  %this.addr.i = alloca ptr, align 8
  %obj = alloca %"class.v8::Local", align 8
  %this.addr = alloca ptr, align 8
  %coerce.dive = getelementptr inbounds %"class.v8::Local", ptr %obj, i32 0, i32 0
  %coerce.dive1 = getelementptr inbounds %"class.v8::LocalBase", ptr %coerce.dive, i32 0, i32 0
  %coerce.dive2 = getelementptr inbounds %"class.v8::IndirectHandleBase", ptr %coerce.dive1, i32 0, i32 0
  store ptr %obj.coerce, ptr %coerce.dive2, align 8
  store ptr %this, ptr %this.addr, align 8
  %this3 = load ptr, ptr %this.addr, align 8
  store ptr %obj, ptr %this.addr.i, align 8
  %this1.i = load ptr, ptr %this.addr.i, align 8
  store ptr %this1.i, ptr %this.addr.i4, align 8
  %this1.i5 = load ptr, ptr %this.addr.i4, align 8
  store ptr %this1.i5, ptr %this.addr.i.i, align 8
  %this1.i.i = load ptr, ptr %this.addr.i.i, align 8
  %0 = load ptr, ptr %this1.i.i, align 8
  store ptr %0, ptr %slot.addr.i, align 8
  %1 = load ptr, ptr %slot.addr.i, align 8
  call void @_ZN2v86Object32SetAlignedPointerInInternalFieldEiPv(ptr noundef nonnull align 1 dereferenceable(1) %1, i32 noundef 2, ptr noundef %this3)
  ret void
}

; Function Attrs: mustprogress nounwind uwtable
define linkonce_odr dso_local void @_ZN4node10StreamBaseC2EPNS_11EnvironmentE(ptr noundef nonnull align 8 dereferenceable(64) %this, ptr noundef %env) unnamed_addr #4 comdat align 2 {
entry:
  %this.addr = alloca ptr, align 8
  %env.addr = alloca ptr, align 8
  store ptr %this, ptr %this.addr, align 8
  store ptr %env, ptr %env.addr, align 8
  %this1 = load ptr, ptr %this.addr, align 8
  call void @_ZN4node14StreamResourceC2Ev(ptr noundef nonnull align 8 dereferenceable(32) %this1) #3
  store ptr getelementptr inbounds ({ [20 x ptr] }, ptr @_ZTVN4node10StreamBaseE, i32 0, i32 0, i32 2), ptr %this1, align 8
  %env_ = getelementptr inbounds %"class.node::StreamBase", ptr %this1, i32 0, i32 1
  %0 = load ptr, ptr %env.addr, align 8
  store ptr %0, ptr %env_, align 8
  %default_listener_ = getelementptr inbounds %"class.node::StreamBase", ptr %this1, i32 0, i32 2
  call void @_ZN4node22EmitToJSStreamListenerC2Ev(ptr noundef nonnull align 8 dereferenceable(24) %default_listener_) #3
  %default_listener_2 = getelementptr inbounds %"class.node::StreamBase", ptr %this1, i32 0, i32 2
  call void @_ZN4node14StreamResource18PushStreamListenerEPNS_14StreamListenerE(ptr noundef nonnull align 8 dereferenceable(32) %this1, ptr noundef %default_listener_2)
  ret void
}

; Function Attrs: mustprogress nounwind uwtable
define dso_local void @_ZN4node15LibuvStreamWrapC2EPNS_11EnvironmentEN2v85LocalINS3_6ObjectEEEP11uv_stream_sNS_9AsyncWrap12ProviderTypeE(ptr noundef nonnull align 8 dereferenceable(160) %this, ptr noundef %env, ptr %object.coerce, ptr noundef %stream, i32 noundef %provider) unnamed_addr #4 align 2 {
entry:
  %object = alloca %"class.v8::Local", align 8
  %this.addr = alloca ptr, align 8
  %env.addr = alloca ptr, align 8
  %stream.addr = alloca ptr, align 8
  %provider.addr = alloca i32, align 4
  %agg.tmp = alloca %"class.v8::Local", align 8
  %agg.tmp8 = alloca %"class.v8::Local", align 8
  %coerce.dive = getelementptr inbounds %"class.v8::Local", ptr %object, i32 0, i32 0
  %coerce.dive1 = getelementptr inbounds %"class.v8::LocalBase", ptr %coerce.dive, i32 0, i32 0
  %coerce.dive2 = getelementptr inbounds %"class.v8::IndirectHandleBase", ptr %coerce.dive1, i32 0, i32 0
  store ptr %object.coerce, ptr %coerce.dive2, align 8
  store ptr %this, ptr %this.addr, align 8
  store ptr %env, ptr %env.addr, align 8
  store ptr %stream, ptr %stream.addr, align 8
  store i32 %provider, ptr %provider.addr, align 4
  %this3 = load ptr, ptr %this.addr, align 8
  %0 = load ptr, ptr %env.addr, align 8
  call void @llvm.memcpy.p0.p0.i64(ptr align 8 %agg.tmp, ptr align 8 %object, i64 8, i1 false)
  %1 = load ptr, ptr %stream.addr, align 8
  %2 = load i32, ptr %provider.addr, align 4
  %coerce.dive4 = getelementptr inbounds %"class.v8::Local", ptr %agg.tmp, i32 0, i32 0
  %coerce.dive5 = getelementptr inbounds %"class.v8::LocalBase", ptr %coerce.dive4, i32 0, i32 0
  %coerce.dive6 = getelementptr inbounds %"class.v8::IndirectHandleBase", ptr %coerce.dive5, i32 0, i32 0
  %3 = load ptr, ptr %coerce.dive6, align 8
  call void @_ZN4node10HandleWrapC2EPNS_11EnvironmentEN2v85LocalINS3_6ObjectEEEP11uv_handle_sNS_9AsyncWrap12ProviderTypeE(ptr noundef nonnull align 8 dereferenceable(88) %this3, ptr noundef %0, ptr %3, ptr noundef %1, i32 noundef %2)
  %4 = getelementptr inbounds i8, ptr %this3, i64 88
  %5 = load ptr, ptr %env.addr, align 8
  call void @_ZN4node10StreamBaseC2EPNS_11EnvironmentE(ptr noundef nonnull align 8 dereferenceable(64) %4, ptr noundef %5)
  store ptr getelementptr inbounds ({ [34 x ptr], [20 x ptr] }, ptr @_ZTVN4node15LibuvStreamWrapE, i32 0, i32 0, i32 2), ptr %this3, align 8
  %add.ptr = getelementptr inbounds i8, ptr %this3, i64 88
  store ptr getelementptr inbounds ({ [34 x ptr], [20 x ptr] }, ptr @_ZTVN4node15LibuvStreamWrapE, i32 0, i32 1, i32 2), ptr %add.ptr, align 8
  %stream_ = getelementptr inbounds %"class.node::LibuvStreamWrap", ptr %this3, i32 0, i32 2
  %6 = load ptr, ptr %stream.addr, align 8
  store ptr %6, ptr %stream_, align 8
  %add.ptr7 = getelementptr inbounds i8, ptr %this3, i64 88
  call void @llvm.memcpy.p0.p0.i64(ptr align 8 %agg.tmp8, ptr align 8 %object, i64 8, i1 false)
  %coerce.dive9 = getelementptr inbounds %"class.v8::Local", ptr %agg.tmp8, i32 0, i32 0
  %coerce.dive10 = getelementptr inbounds %"class.v8::LocalBase", ptr %coerce.dive9, i32 0, i32 0
  %coerce.dive11 = getelementptr inbounds %"class.v8::IndirectHandleBase", ptr %coerce.dive10, i32 0, i32 0
  %7 = load ptr, ptr %coerce.dive11, align 8
  call void @_ZN4node10StreamBase14AttachToObjectEN2v85LocalINS1_6ObjectEEE(ptr noundef nonnull align 8 dereferenceable(64) %add.ptr7, ptr %7)
  ret void
}