; Function Attrs: mustprogress nounwind uwtable
define dso_local void @_ZN4node15LibuvStreamWrapC2EPNS_11EnvironmentEN2v85LocalINS3_6ObjectEEEP11uv_stream_sNS_9AsyncWrap12ProviderTypeE(ptr noundef nonnull align 8 dereferenceable(160) %this, ptr noundef %env, ptr %object.coerce, ptr noundef %stream, i32 noundef %provider) unnamed_addr #3 align 2 {
entry:
  tail call void @_ZN4node10HandleWrapC2EPNS_11EnvironmentEN2v85LocalINS3_6ObjectEEEP11uv_handle_sNS_9AsyncWrap12ProviderTypeE(ptr noundef nonnull align 8 dereferenceable(88) %this, ptr noundef %env, ptr %object.coerce, ptr noundef %stream, i32 noundef %provider) #17
  %0 = getelementptr inbounds i8, ptr %this, i64 88
  %listener_.i.i = getelementptr inbounds i8, ptr %this, i64 96
  %1 = getelementptr inbounds i8, ptr %this, i64 104
  tail call void @llvm.memset.p0.i64(ptr noundef nonnull align 8 dereferenceable(24) %1, i8 0, i64 16, i1 false)
  %env_.i = getelementptr inbounds i8, ptr %this, i64 120
  store ptr %env, ptr %env_.i, align 8
  %default_listener_.i = getelementptr inbounds i8, ptr %this, i64 128
  %stream_.i.i.i.i = getelementptr inbounds i8, ptr %this, i64 136
  store ptr getelementptr inbounds ({ [10 x ptr] }, ptr @_ZTVN4node22EmitToJSStreamListenerE, i64 0, i32 0, i64 2), ptr %default_listener_.i, align 8
  %previous_listener_.i.i = getelementptr inbounds i8, ptr %this, i64 144
  store ptr null, ptr %previous_listener_.i.i, align 8
  store ptr %0, ptr %stream_.i.i.i.i, align 8
  store ptr %default_listener_.i, ptr %listener_.i.i, align 8
  store ptr getelementptr inbounds ({ [34 x ptr], [20 x ptr] }, ptr @_ZTVN4node15LibuvStreamWrapE, i64 0, i32 0, i64 2), ptr %this, align 8
  store ptr getelementptr inbounds ({ [34 x ptr], [20 x ptr] }, ptr @_ZTVN4node15LibuvStreamWrapE, i64 0, i32 1, i64 2), ptr %0, align 8
  %stream_ = getelementptr inbounds i8, ptr %this, i64 152
  store ptr %stream, ptr %stream_, align 8
  tail call void @_ZN2v86Object32SetAlignedPointerInInternalFieldEiPv(ptr noundef nonnull align 1 dereferenceable(1) %object.coerce, i32 noundef 2, ptr noundef nonnull %0) #17
  ret void
}